; Function Attrs: mustprogress nounwind uwtable
define hidden void @_ZN15ciObjectFactory5printEv(ptr nocapture noundef nonnull readonly align 8 dereferenceable(652) %0) local_unnamed_addr #0 align 2 {
  %2 = load ptr, ptr @tty, align 8
  %3 = getelementptr inbounds i8, ptr %0, i64 648
  %4 = load i32, ptr %3, align 8
  %5 = getelementptr inbounds i8, ptr %0, i64 8
  %6 = load i32, ptr %5, align 8
  %7 = getelementptr inbounds i8, ptr %0, i64 32
  %8 = load i32, ptr %7, align 8
  %9 = getelementptr inbounds i8, ptr %0, i64 80
  %10 = load i32, ptr %9, align 8
  %11 = getelementptr inbounds i8, ptr %0, i64 56
  %12 = load i32, ptr %11, align 8
  tail call void (ptr, ptr, ...) @_ZN12outputStream5printEPKcz(ptr noundef nonnull align 8 dereferenceable(56) %2, ptr noundef nonnull @.str.5, i32 noundef %4, i32 noundef %6, i32 noundef %8, i32 noundef %10, i32 noundef %12) #9
  ret void
}